target datalayout = "e-m:e-p270:32:32-p271:32:32-p272:64:64-i64:64-i128:128-f80:128-n8:16:32:64-S128"
target triple = "x86_64-pc-linux-gnu"

@bio_err = external global ptr, align 8
@.str.220 = private unnamed_addr constant [28 x i8] c"Can't open session file %s\0A\00", align 1
@.str.231 = private unnamed_addr constant [24 x i8] c"No session information\0A\00", align 1
@.str.232 = private unnamed_addr constant [2 x i8] c"w\00", align 1

; Function Attrs: nounwind uwtable
define internal i32 @write_session(ptr noundef %0, ptr noundef %1) #0 {
  %3 = alloca i32, align 4
  %4 = alloca ptr, align 8
  %5 = alloca ptr, align 8
  %6 = alloca ptr, align 8
  %7 = alloca i32, align 4
  store ptr %0, ptr %4, align 8, !tbaa !11
  store ptr %1, ptr %5, align 8, !tbaa !48
  call void @llvm.lifetime.start.p0(i64 8, ptr %6) #10
  %8 = load ptr, ptr %5, align 8, !tbaa !48
  %9 = icmp eq ptr %8, null
  br i1 %9, label %10, label %13

10:                                               ; preds = %2
  %11 = load ptr, ptr @bio_err, align 8, !tbaa !35
  %12 = call i32 (ptr, ptr, ...) @BIO_printf(ptr noundef %11, ptr noundef @.str.231)
  store i32 0, ptr %3, align 4
  store i32 1, ptr %7, align 4
  br label %29

13:                                               ; preds = %2
  %14 = load ptr, ptr %4, align 8, !tbaa !11
  %15 = call ptr @BIO_new_file(ptr noundef %14, ptr noundef @.str.232)
  store ptr %15, ptr %6, align 8, !tbaa !35
  %16 = load ptr, ptr %6, align 8, !tbaa !35
  %17 = icmp eq ptr %16, null
  br i1 %17, label %18, label %23

18:                                               ; preds = %13
  %19 = load ptr, ptr @bio_err, align 8, !tbaa !35
  %20 = load ptr, ptr %4, align 8, !tbaa !11
  %21 = call i32 (ptr, ptr, ...) @BIO_printf(ptr noundef %19, ptr noundef @.str.220, ptr noundef %20)
  %22 = load ptr, ptr @bio_err, align 8, !tbaa !35
  call void @ERR_print_errors(ptr noundef %22)
  store i32 0, ptr %3, align 4
  store i32 1, ptr %7, align 4
  br label %29

23:                                               ; preds = %13
  %24 = load ptr, ptr %6, align 8, !tbaa !35
  %25 = load ptr, ptr %5, align 8, !tbaa !48
  %26 = call i32 @PEM_write_bio_SSL_SESSION(ptr noundef %24, ptr noundef %25)
  %27 = load ptr, ptr %6, align 8, !tbaa !35
  %28 = call i32 @BIO_free(ptr noundef %27)
  store i32 1, ptr %3, align 4
  store i32 1, ptr %7, align 4
  br label %29

29:                                               ; preds = %23, %18, %10
  call void @llvm.lifetime.end.p0(i64 8, ptr %6) #10
  %30 = load i32, ptr %3, align 4
  ret i32 %30
}