; Function Attrs: nounwind uwtable
define internal fastcc range(i32 0, 2) i32 @write_session(ptr noundef nonnull %0, ptr noundef %1) unnamed_addr #7 {
  %3 = icmp eq ptr %1, null
  br i1 %3, label %4, label %7

4:                                                ; preds = %2
  %5 = load ptr, ptr @bio_err, align 8, !tbaa !19
  %6 = tail call i32 (ptr, ptr, ...) @BIO_printf(ptr noundef %5, ptr noundef nonnull @.str.231) #23
  br label %17

7:                                                ; preds = %2
  %8 = tail call ptr @BIO_new_file(ptr noundef nonnull %0, ptr noundef nonnull @.str.232) #23
  %9 = icmp eq ptr %8, null
  br i1 %9, label %10, label %14

10:                                               ; preds = %7
  %11 = load ptr, ptr @bio_err, align 8, !tbaa !19
  %12 = tail call i32 (ptr, ptr, ...) @BIO_printf(ptr noundef %11, ptr noundef nonnull @.str.220, ptr noundef nonnull %0) #23
  %13 = load ptr, ptr @bio_err, align 8, !tbaa !19
  tail call void @ERR_print_errors(ptr noundef %13) #23
  br label %17

14:                                               ; preds = %7
  %15 = tail call i32 @PEM_write_bio_SSL_SESSION(ptr noundef nonnull %8, ptr noundef nonnull %1) #23
  %16 = tail call i32 @BIO_free(ptr noundef nonnull %8) #23
  br label %17

17:                                               ; preds = %14, %10, %4
  %.0 = phi i32 [ 0, %4 ], [ 0, %10 ], [ 1, %14 ]
  ret i32 %.0
}